ccopy_reg
_reconstructor
p0
(csklearn.linear_model.base
LinearRegression
p1
c__builtin__
object
p2
Ntp3
Rp4
(dp5
S'normalize'
p6
I00
sS'n_jobs'
p7
I-1
sS'rank_'
p8
I4
sS'fit_intercept'
p9
I01
sS'_residues'
p10
cnumpy.core.multiarray
scalar
p11
(cnumpy
dtype
p12
(S'f8'
p13
I0
I1
tp14
Rp15
(I3
S'<'
p16
NNNI-1
I-1
I0
tp17
bS'\r\xd8\xa0\x1b\xc2\xbf\x16A'
p18
tp19
Rp20
sS'coef_'
p21
cnumpy.core.multiarray
_reconstruct
p22
(cnumpy
ndarray
p23
(I0
tp24
S'b'
p25
tp26
Rp27
(I1
(I4
tp28
g15
I00
S'\x84`mP\x9a\xaeV@\x9e\x19;^\xe2\x18\xe0\xbf\xfe\xc2\x9fy\xe3\xfb\xd3\xbf\x15[Q\x15\xbb\x00\x0e@'
p29
tp30
bsS'copy_X'
p31
I01
sS'intercept_'
p32
g11
(g15
S'{\xa7\xb3L\xc0\x07_@'
p33
tp34
Rp35
sS'singular_'
p36
g22
(g23
(I0
tp37
g25
tp38
Rp39
(I1
(I4
tp40
g15
I00
S'4\xe8n\xc5\xdc\xceD@\x01$\xea\xed\x8b\xa8B@\xe8v\xfa\xd5\x8b\x04A@&o\xddx2\xb32@'
p41
tp42
bsb.